; Function Attrs: nounwind uwtable
define dso_local i32 @commit_shallow_file(ptr noundef %0, ptr noundef %1) local_unnamed_addr #0 {
  %3 = tail call i32 @commit_lock_file(ptr noundef %1) #15
  %4 = getelementptr inbounds nuw i8, ptr %0, i64 24
  %5 = load ptr, ptr %4, align 8, !tbaa !4
  %6 = getelementptr inbounds nuw i8, ptr %5, i64 80
  store i32 -1, ptr %6, align 8, !tbaa !28
  %7 = getelementptr inbounds nuw i8, ptr %5, i64 88
  %8 = load ptr, ptr %7, align 8, !tbaa !51
  tail call void @stat_validity_clear(ptr noundef %8) #15
  %9 = load ptr, ptr %4, align 8, !tbaa !4
  tail call void @parsed_object_pool_reset_commit_grafts(ptr noundef %9) #15
  %10 = tail call i32 @is_repository_shallow(ptr noundef %0)
  ret i32 %3
}